; Function Attrs: nounwind uwtable
define dso_local range(i64 0, 2) i64 @elem_contained_by_multirange(ptr noundef readonly captures(none) %0) local_unnamed_addr #0 {
  %2 = getelementptr inbounds nuw i8, ptr %0, i64 32
  %3 = load i64, ptr %2, align 8
  %4 = getelementptr inbounds nuw i8, ptr %0, i64 48
  %5 = load i64, ptr %4, align 8
  %6 = inttoptr i64 %5 to ptr
  %7 = tail call ptr @pg_detoast_datum(ptr noundef %6) #11
  %8 = getelementptr inbounds nuw i8, ptr %7, i64 4
  %9 = load i32, ptr %8, align 4
  %10 = load ptr, ptr %0, align 8
  %11 = getelementptr inbounds nuw i8, ptr %10, i64 24
  %12 = load ptr, ptr %11, align 8
  %13 = icmp eq ptr %12, null
  br i1 %13, label %16, label %14

14:                                               ; preds = %1
  %15 = load i32, ptr %12, align 8
  %.not.i = icmp eq i32 %15, %9
  br i1 %.not.i, label %multirange_get_typcache.exit, label %16

16:                                               ; preds = %14, %1
  %17 = tail call ptr @lookup_type_cache(i32 noundef %9, i32 noundef 65536) #11
  %18 = getelementptr inbounds nuw i8, ptr %17, i64 440
  %19 = load ptr, ptr %18, align 8
  %20 = icmp eq ptr %19, null
  br i1 %20, label %21, label %24

21:                                               ; preds = %16
  %22 = tail call zeroext i1 @errstart_cold(i32 noundef 21, ptr noundef null) #13
  tail call void @llvm.assume(i1 %22)
  %23 = tail call i32 (ptr, ...) @errmsg_internal(ptr noundef nonnull @.str.9, i32 noundef %9) #11
  tail call void @errfinish(ptr noundef nonnull @.str.2, i32 noundef 557, ptr noundef nonnull @__func__.multirange_get_typcache) #11
  unreachable

24:                                               ; preds = %16
  %25 = load ptr, ptr %0, align 8
  %26 = getelementptr inbounds nuw i8, ptr %25, i64 24
  store ptr %17, ptr %26, align 8
  br label %multirange_get_typcache.exit

multirange_get_typcache.exit:                     ; preds = %14, %24
  %.0.i = phi ptr [ %17, %24 ], [ %12, %14 ]
  %27 = getelementptr inbounds nuw i8, ptr %.0.i, i64 440
  %28 = load ptr, ptr %27, align 8
  %29 = tail call zeroext i1 @multirange_contains_elem_internal(ptr noundef %28, ptr noundef nonnull %7, i64 noundef %3)
  %30 = zext i1 %29 to i64
  ret i64 %30
}